Certificate:
    Data:
        Version: 3 (0x2)
        Serial Number:
            7b:f8:a5:93:bd:cb:70:c7:eb:00:82:8c:e7:40:ac:43
        Signature Algorithm: sha256WithRSAEncryption
        Issuer: CN=Certum Domain Validation CA SHA2,OU=Certum Certification Authority,O=Unizeto Technologies S.A.,C=PL
        Validity
            Not Before: Jul  4 12:43:57 2023 GMT
            Not After : Jul  3 12:43:56 2024 GMT
        Subject: CN=*.si24.ir
        Subject Public Key Info:
            Public Key Algorithm: rsaEncryption
                RSA Public-Key: (4096 bit)
                Modulus:
                    00:bc:ed:4d:e8:36:24:89:32:fa:26:74:c9:67:d9:
                    ea:42:c1:f3:78:07:76:34:24:da:ff:bc:d6:92:46:
                    05:64:fc:5d:66:50:fe:64:5e:2d:1d:8e:02:ab:cd:
                    7f:ab:a6:66:02:c2:af:90:f4:6c:d5:c3:4a:e3:67:
                    2e:ef:a7:06:3a:81:c3:57:0c:5c:38:6f:b1:45:4b:
                    b8:18:1c:08:d7:04:d9:d8:a7:b1:b1:f7:9a:9e:b9:
                    6f:17:56:d8:9c:7f:a7:d5:b5:af:e9:17:fd:f5:c2:
                    7d:ad:6d:d2:af:58:0e:57:56:c5:04:81:df:8c:92:
                    88:80:b7:7c:02:2d:e2:1f:b3:cd:b8:94:c2:da:11:
                    1b:8d:3a:04:d3:c5:42:32:d4:96:92:28:85:b2:09:
                    13:d3:3b:7f:34:1d:42:55:1d:da:9f:e2:01:54:ff:
                    a3:dc:42:55:ae:30:39:99:ee:c6:32:9b:12:bb:30:
                    6f:98:24:1f:53:3b:1a:18:84:89:5c:0f:c0:be:e7:
                    5b:cf:f7:70:1e:fa:bc:72:12:9c:b7:ef:d1:cf:9a:
                    9e:dc:28:8e:75:1e:64:e0:1f:c2:5d:a5:c2:c2:2e:
                    89:18:a7:10:e1:2d:12:ee:1d:3e:ad:e5:bc:48:25:
                    f2:fb:8c:e8:dc:ac:55:78:03:9a:39:fc:d0:c7:86:
                    c0:62:b8:4b:42:f1:fc:e8:0d:55:57:ff:cb:e0:2f:
                    0d:40:52:fd:4e:d8:bb:f1:e3:5f:f8:bf:55:e1:23:
                    92:40:8f:e3:e2:f4:df:55:43:bb:89:17:db:6f:90:
                    cb:04:b0:55:76:7d:28:0b:6f:10:bd:6a:bd:8d:00:
                    5a:88:92:80:15:5e:fc:a1:72:13:c2:c3:7e:ae:2e:
                    a6:ea:99:70:41:aa:f6:14:a6:43:1d:93:7b:73:f3:
                    31:ea:79:4e:e7:91:e6:17:58:66:72:ad:0c:89:8c:
                    7b:5a:16:59:04:db:b6:eb:cb:9a:f6:0f:c2:ca:41:
                    db:be:8a:73:1d:fe:cf:a6:33:9f:d8:7c:0d:1d:2c:
                    0f:c4:27:c9:f0:c8:c6:bc:d5:6c:27:b4:94:d2:64:
                    ea:ba:7d:b0:e8:18:a4:05:30:0f:b4:b9:5a:03:5a:
                    8a:1f:14:a5:e8:27:7b:44:82:f9:c5:05:a9:ad:5f:
                    83:82:9e:32:28:a6:22:ac:25:4d:91:7e:c6:cf:bf:
                    75:f5:f8:2f:e3:44:c9:f4:6b:02:e3:bb:14:52:15:
                    49:bf:2c:de:c7:07:19:35:ad:c8:e0:43:0c:87:00:
                    2d:b7:c6:94:7a:5a:7d:73:3e:77:e7:25:1f:b1:12:
                    46:47:c4:23:ce:cd:ca:0b:fa:5a:92:35:ce:8f:52:
                    65:5f:35
                Exponent: 65537 (0x10001)
        X509v3 extensions:
            X509v3 Basic Constraints: critical
                CA:FALSE
            X509v3 CRL Distribution Points: 

                Full Name:
                  URI:http://crl.certum.pl/dvcasha2.crl

            Authority Information Access: 
                OCSP - URI:http://dvcasha2.ocsp-certum.com
                CA Issuers - URI:http://repository.certum.pl/dvcasha2.cer

            X509v3 Authority Key Identifier: 
                keyid:E5:31:AD:BF:3A:11:96:F4:83:BC:50:3C:D4:B7:90:9B:90:EE:DE:25

            X509v3 Subject Key Identifier: 
                9F:E0:88:31:F3:C9:93:3F:ED:E4:FF:1E:26:70:A4:F0:62:A5:AB:30
            X509v3 Issuer Alternative Name: 
                email:dvcasha2@certum.pl
            X509v3 Certificate Policies: 
                Policy: 2.23.140.1.2.1
                Policy: 1.2.616.1.113527.2.5.1.3
                  CPS: https://www.certum.pl/CPS

            X509v3 Extended Key Usage: 
                TLS Web Server Authentication, TLS Web Client Authentication
            X509v3 Key Usage: critical
                Digital Signature, Key Encipherment
            X509v3 Subject Alternative Name: 
                DNS:*.si24.ir, DNS:si24.ir
            CT Precertificate SCTs: 
                Signed Certificate Timestamp:
                    Version   : v1 (0x0)
                    Log ID    : EE:CD:D0:64:D5:DB:1A:CE:C5:5C:B7:9D:B4:CD:13:A2:
                                32:87:46:7C:BC:EC:DE:C3:51:48:59:46:71:1F:B5:9B
                    Timestamp : Jul  4 12:43:57.744 2023 GMT
                    Extensions: none
                    Signature : ecdsa-with-SHA256
                                30:44:02:20:5A:49:76:66:7E:6F:4D:F3:27:77:C7:19:
                                5F:2B:38:7D:F4:20:B7:61:B0:2D:41:44:17:06:EB:6A:
                                AA:95:15:6D:02:20:48:F0:FF:C1:96:3E:E1:A9:F6:8F:
                                3F:F9:FF:EE:6A:7B:68:81:A7:F4:3A:28:8B:5D:8A:FD:
                                71:5C:25:7C:23:00
                Signed Certificate Timestamp:
                    Version   : v1 (0x0)
                    Log ID    : DA:B6:BF:6B:3F:B5:B6:22:9F:9B:C2:BB:5C:6B:E8:70:
                                91:71:6C:BB:51:84:85:34:BD:A4:3D:30:48:D7:FB:AB
                    Timestamp : Jul  4 12:43:57.806 2023 GMT
                    Extensions: none
                    Signature : ecdsa-with-SHA256
                                30:45:02:21:00:FD:90:67:C6:A2:2F:42:F3:4E:98:DA:
                                22:64:E5:4B:26:D4:7D:D3:1A:AA:80:7A:C6:41:E7:F5:
                                65:D8:D6:88:A7:02:20:38:D5:64:E3:BC:FA:29:C3:F9:
                                BD:A1:1F:1F:61:8B:20:8B:76:7E:39:ED:63:B3:5A:6A:
                                83:3A:2F:8B:7F:99:7F
                Signed Certificate Timestamp:
                    Version   : v1 (0x0)
                    Log ID    : 48:B0:E3:6B:DA:A6:47:34:0F:E5:6A:02:FA:9D:30:EB:
                                1C:52:01:CB:56:DD:2C:81:D9:BB:BF:AB:39:D8:84:73
                    Timestamp : Jul  4 12:43:58.425 2023 GMT
                    Extensions: none
                    Signature : ecdsa-with-SHA256
                                30:44:02:20:1A:66:41:60:B5:35:87:8E:F4:BB:46:FB:
                                99:C2:D9:D3:DD:7E:18:0E:43:8D:6A:42:0D:5D:B5:1E:
                                DE:DE:F7:19:02:20:39:38:0D:D5:38:11:84:EC:24:33:
                                78:0F:92:0A:AF:F9:33:E3:B6:87:7B:7D:1C:D2:45:94:
                                8B:44:B6:FB:A3:0C
    Signature Algorithm: sha256WithRSAEncryption
         0e:60:5f:b2:e6:d5:8a:b4:2c:3a:ba:ac:79:36:0a:cc:52:c6:
         77:f9:ec:68:47:c6:fd:70:98:5b:93:2b:da:bd:cb:77:8c:86:
         eb:d6:90:5f:10:46:e6:9e:54:1e:38:57:5b:dc:9e:87:27:dd:
         7f:3b:44:35:14:71:52:bd:fd:e0:5f:3c:f5:f7:26:f4:47:79:
         8b:88:81:35:20:5f:2d:6c:6b:f5:01:16:a2:d4:19:24:c6:a1:
         68:35:68:97:1c:36:4d:94:a3:2b:4b:fc:9d:07:c2:6f:19:bd:
         87:d8:6d:d1:03:50:99:02:a8:e8:4b:9b:95:1b:3e:bd:1a:7a:
         f2:a7:7a:1b:95:f3:17:50:c3:39:a1:94:9e:fc:1a:0f:34:8d:
         5e:39:c3:00:39:45:cd:69:d1:c6:c9:44:88:63:2b:31:a5:e3:
         74:44:e4:87:92:5e:f6:00:66:fd:d6:2b:02:38:ab:e0:09:a3:
         b1:0f:f3:23:71:66:53:37:9f:f6:f2:3a:84:e5:79:16:47:8e:
         1c:50:7e:0d:3c:d4:7e:31:8e:75:a5:8a:39:db:e9:b9:3e:7f:
         26:48:dc:1f:10:36:d7:90:ce:7f:da:85:5e:e0:f8:d5:e5:d9:
         bb:fb:18:66:af:ba:77:2e:33:25:e3:b3:2b:17:41:70:8f:5c:
         e1:0e:47:40
issuer=CN=Certum Domain Validation CA SHA2,OU=Certum Certification Authority,O=Unizeto Technologies S.A.,C=PL
subject=CN=*.si24.ir
Bag Attributes
    localKeyID: 80 AB 18 86 E7 BE AB 11 63 C4 F7 D0 7A 1C 9A FE D0 77 05 BD 
subject=CN = *.si24.ir

issuer=C = PL, O = Unizeto Technologies S.A., OU = Certum Certification Authority, CN = Certum Domain Validation CA SHA2

-----BEGIN CERTIFICATE-----
MIIHWTCCBkGgAwIBAgIQe/ilk73LcMfrAIKM50CsQzANBgkqhkiG9w0BAQsFADCB
hTELMAkGA1UEBhMCUEwxIjAgBgNVBAoTGVVuaXpldG8gVGVjaG5vbG9naWVzIFMu
QS4xJzAlBgNVBAsTHkNlcnR1bSBDZXJ0aWZpY2F0aW9uIEF1dGhvcml0eTEpMCcG
A1UEAxMgQ2VydHVtIERvbWFpbiBWYWxpZGF0aW9uIENBIFNIQTIwHhcNMjMwNzA0
MTI0MzU3WhcNMjQwNzAzMTI0MzU2WjAUMRIwEAYDVQQDDAkqLnNpMjQuaXIwggIi
MA0GCSqGSIb3DQEBAQUAA4ICDwAwggIKAoICAQC87U3oNiSJMvomdMln2epCwfN4
B3Y0JNr/vNaSRgVk/F1mUP5kXi0djgKrzX+rpmYCwq+Q9GzVw0rjZy7vpwY6gcNX
DFw4b7FFS7gYHAjXBNnYp7Gx95qeuW8XVticf6fVta/pF/31wn2tbdKvWA5XVsUE
gd+MkoiAt3wCLeIfs824lMLaERuNOgTTxUIy1JaSKIWyCRPTO380HUJVHdqf4gFU
/6PcQlWuMDmZ7sYymxK7MG+YJB9TOxoYhIlcD8C+51vP93Ae+rxyEpy379HPmp7c
KI51HmTgH8JdpcLCLokYpxDhLRLuHT6t5bxIJfL7jOjcrFV4A5o5/NDHhsBiuEtC
8fzoDVVX/8vgLw1AUv1O2Lvx41/4v1XhI5JAj+Pi9N9VQ7uJF9tvkMsEsFV2fSgL
bxC9ar2NAFqIkoAVXvyhchPCw36uLqbqmXBBqvYUpkMdk3tz8zHqeU7nkeYXWGZy
rQyJjHtaFlkE27bry5r2D8LKQdu+inMd/s+mM5/YfA0dLA/EJ8nwyMa81WwntJTS
ZOq6fbDoGKQFMA+0uVoDWoofFKXoJ3tEgvnFBamtX4OCnjIopiKsJU2RfsbPv3X1
+C/jRMn0awLjuxRSFUm/LN7HBxk1rcjgQwyHAC23xpR6Wn1zPnfnJR+xEkZHxCPO
zcoL+lqSNc6PUmVfNQIDAQABo4IDMzCCAy8wDAYDVR0TAQH/BAIwADAyBgNVHR8E
KzApMCegJaAjhiFodHRwOi8vY3JsLmNlcnR1bS5wbC9kdmNhc2hhMi5jcmwwcQYI
KwYBBQUHAQEEZTBjMCsGCCsGAQUFBzABhh9odHRwOi8vZHZjYXNoYTIub2NzcC1j
ZXJ0dW0uY29tMDQGCCsGAQUFBzAChihodHRwOi8vcmVwb3NpdG9yeS5jZXJ0dW0u
cGwvZHZjYXNoYTIuY2VyMB8GA1UdIwQYMBaAFOUxrb86EZb0g7xQPNS3kJuQ7t4l
MB0GA1UdDgQWBBSf4Igx88mTP+3k/x4mcKTwYqWrMDAdBgNVHRIEFjAUgRJkdmNh
c2hhMkBjZXJ0dW0ucGwwSwYDVR0gBEQwQjAIBgZngQwBAgEwNgYLKoRoAYb2dwIF
AQMwJzAlBggrBgEFBQcCARYZaHR0cHM6Ly93d3cuY2VydHVtLnBsL0NQUzAdBgNV
HSUEFjAUBggrBgEFBQcDAQYIKwYBBQUHAwIwDgYDVR0PAQH/BAQDAgWgMB0GA1Ud
EQQWMBSCCSouc2kyNC5pcoIHc2kyNC5pcjCCAXwGCisGAQQB1nkCBAIEggFsBIIB
aAFmAHUA7s3QZNXbGs7FXLedtM0TojKHRny87N7DUUhZRnEftZsAAAGJIO5VsAAA
BAMARjBEAiBaSXZmfm9N8yd3xxlfKzh99CC3YbAtQUQXButqqpUVbQIgSPD/wZY+
4an2jz/5/+5qe2iBp/Q6KItdiv1xXCV8IwAAdgDatr9rP7W2Ip+bwrtca+hwkXFs
u1GEhTS9pD0wSNf7qwAAAYkg7lXuAAAEAwBHMEUCIQD9kGfGoi9C806Y2iJk5Usm
1H3TGqqAesZB5/Vl2NaIpwIgONVk47z6KcP5vaEfH2GLIIt2fjntY7NaaoM6L4t/
mX8AdQBIsONr2qZHNA/lagL6nTDrHFIBy1bdLIHZu7+rOdiEcwAAAYkg7lhZAAAE
AwBGMEQCIBpmQWC1NYeO9LtG+5nC2dPdfhgOQ41qQg1dtR7e3vcZAiA5OA3VOBGE
7CQzeA+SCq/5M+O2h3t9HNJFlItEtvujDDANBgkqhkiG9w0BAQsFAAOCAQEADmBf
subVirQsOrqseTYKzFLGd/nsaEfG/XCYW5Mr2r3Ld4yG69aQXxBG5p5UHjhXW9ye
hyfdfztENRRxUr394F889fcm9Ed5i4iBNSBfLWxr9QEWotQZJMahaDVolxw2TZSj
K0v8nQfCbxm9h9ht0QNQmQKo6EublRs+vRp68qd6G5XzF1DDOaGUnvwaDzSNXjnD
ADlFzWnRxslEiGMrMaXjdETkh5Je9gBm/dYrAjir4AmjsQ/zI3FmUzef9vI6hOV5
FkeOHFB+DTzUfjGOdaWKOdvpuT5/JkjcHxA215DOf9qFXuD41eXZu/sYZq+6dy4z
JeOzKxdBcI9c4Q5HQA==
-----END CERTIFICATE-----
Certificate:
    Data:
        Version: 3 (0x2)
        Serial Number:
            26:dd:d2:2b:46:c9:c4:4d:5a:69:4d:39:80:7e:72:ad
        Signature Algorithm: sha256WithRSAEncryption
        Issuer: CN=Certum Trusted Network CA,OU=Certum Certification Authority,O=Unizeto Technologies S.A.,C=PL
        Validity
            Not Before: Sep 11 12:00:00 2014 GMT
            Not After : Jun  9 10:46:39 2027 GMT
        Subject: CN=Certum Domain Validation CA SHA2,OU=Certum Certification Authority,O=Unizeto Technologies S.A.,C=PL
        Subject Public Key Info:
            Public Key Algorithm: rsaEncryption
                RSA Public-Key: (2048 bit)
                Modulus:
                    00:a1:25:63:df:8d:e4:20:07:d9:54:d1:d1:04:f6:
                    17:e2:3e:47:fb:c3:74:25:b8:c4:bf:12:12:bc:e0:
                    70:d1:39:05:c2:17:b3:f7:82:70:a0:4e:07:fe:10:
                    2a:ff:db:0d:46:5e:24:94:a3:8b:45:9f:18:9b:ce:
                    42:c4:ae:db:83:33:bc:c2:bb:b4:30:b6:a7:37:87:
                    78:7b:48:cb:25:2c:82:bb:0a:48:12:60:76:89:ec:
                    8e:cc:8f:1e:52:48:e9:86:02:5a:c2:b0:8a:7c:85:
                    3d:d9:ff:60:4f:33:6c:a6:a1:a0:85:e1:d7:53:f2:
                    ea:27:3d:65:a9:72:c1:08:83:cc:b0:25:9c:11:46:
                    24:e0:3e:f4:a7:ef:ed:51:b1:65:93:42:b4:f6:e6:
                    86:0a:10:79:32:36:58:b2:6b:a8:dc:d5:7a:1e:9d:
                    14:ee:40:e7:b2:46:4c:bd:9a:29:c2:ec:f8:30:c1:
                    62:02:2a:e2:1c:83:62:d0:85:36:1a:83:de:12:84:
                    29:65:ef:d2:32:be:31:60:42:a8:cf:f8:dd:ea:d0:
                    56:47:1d:bd:76:96:24:13:e7:be:d9:99:2b:fa:30:
                    64:f1:8a:38:7a:a6:e1:2a:96:02:b0:9d:ba:d8:8f:
                    6d:4e:7a:94:69:7d:b0:93:aa:74:e5:93:90:13:fa:
                    a2:99
                Exponent: 65537 (0x10001)
        X509v3 extensions:
            X509v3 Basic Constraints: critical
                CA:TRUE
            X509v3 Subject Key Identifier: 
                E5:31:AD:BF:3A:11:96:F4:83:BC:50:3C:D4:B7:90:9B:90:EE:DE:25
            X509v3 Authority Key Identifier: 
                keyid:08:76:CD:CB:07:FF:24:F6:C5:CD:ED:BB:90:BC:E2:84:37:46:75:F7

            X509v3 Key Usage: critical
                Certificate Sign, CRL Sign
            X509v3 CRL Distribution Points: 

                Full Name:
                  URI:http://crl.certum.pl/ctnca.crl

            Authority Information Access: 
                OCSP - URI:http://subca.ocsp-certum.com
                CA Issuers - URI:http://repository.certum.pl/ctnca.cer

            X509v3 Certificate Policies: 
                Policy: X509v3 Any Policy
                  CPS: http://www.certum.pl/CPS

    Signature Algorithm: sha256WithRSAEncryption
         ba:bf:f0:e1:dd:4d:2b:42:43:64:58:df:64:f3:ff:80:1a:5f:
         56:be:3b:a9:b2:76:f7:54:7a:4c:30:c1:99:24:4b:72:d2:ca:
         d4:fa:08:c6:90:de:88:12:ed:f8:90:f9:fc:a9:84:fd:92:f2:
         78:e5:db:c9:22:57:ab:41:30:42:6b:0b:9f:d7:73:33:fb:01:
         67:1c:42:5c:8f:27:67:c7:6e:07:03:8d:0e:96:cb:0a:03:cc:
         3e:f8:87:3c:35:30:cd:18:8c:d5:71:dd:cd:dd:61:b0:13:a3:
         64:46:4e:fe:71:4e:6b:65:e9:14:04:f2:3f:a8:bd:0c:36:3d:
         2a:5d:9e:07:f2:c2:4f:90:c5:5e:4d:18:37:d1:27:28:80:a4:
         36:e5:ca:93:6a:65:0e:f8:93:b9:af:52:58:4b:7a:71:d8:ba:
         f3:ef:d2:f3:f6:a2:97:e4:5d:14:02:9a:cb:e5:ae:b6:93:e1:
         23:9f:9b:3f:46:f7:ee:8e:a1:00:5b:66:c3:1e:68:23:86:0f:
         5d:77:ba:53:ad:f9:52:fb:70:15:c5:75:eb:cf:79:ad:49:7c:
         f2:76:62:ae:44:2f:c5:5f:51:34:25:41:6a:12:0a:5f:8e:ae:
         10:c4:43:89:35:fd:ec:ff:31:e6:ec:1e:87:e9:3a:7c:29:50:
         45:41:a3:14
issuer=CN=Certum Trusted Network CA,OU=Certum Certification Authority,O=Unizeto Technologies S.A.,C=PL
subject=CN=Certum Domain Validation CA SHA2,OU=Certum Certification Authority,O=Unizeto Technologies S.A.,C=PL
-----BEGIN CERTIFICATE-----
MIIEzjCCA7agAwIBAgIQJt3SK0bJxE1aaU05gH5yrTANBgkqhkiG9w0BAQsFADB+
MQswCQYDVQQGEwJQTDEiMCAGA1UEChMZVW5pemV0byBUZWNobm9sb2dpZXMgUy5B
LjEnMCUGA1UECxMeQ2VydHVtIENlcnRpZmljYXRpb24gQXV0aG9yaXR5MSIwIAYD
VQQDExlDZXJ0dW0gVHJ1c3RlZCBOZXR3b3JrIENBMB4XDTE0MDkxMTEyMDAwMFoX
DTI3MDYwOTEwNDYzOVowgYUxCzAJBgNVBAYTAlBMMSIwIAYDVQQKExlVbml6ZXRv
IFRlY2hub2xvZ2llcyBTLkEuMScwJQYDVQQLEx5DZXJ0dW0gQ2VydGlmaWNhdGlv
biBBdXRob3JpdHkxKTAnBgNVBAMTIENlcnR1bSBEb21haW4gVmFsaWRhdGlvbiBD
QSBTSEEyMIIBIjANBgkqhkiG9w0BAQEFAAOCAQ8AMIIBCgKCAQEAoSVj343kIAfZ
VNHRBPYX4j5H+8N0JbjEvxISvOBw0TkFwhez94JwoE4H/hAq/9sNRl4klKOLRZ8Y
m85CxK7bgzO8wru0MLanN4d4e0jLJSyCuwpIEmB2ieyOzI8eUkjphgJawrCKfIU9
2f9gTzNspqGgheHXU/LqJz1lqXLBCIPMsCWcEUYk4D70p+/tUbFlk0K09uaGChB5
MjZYsmuo3NV6Hp0U7kDnskZMvZopwuz4MMFiAiriHINi0IU2GoPeEoQpZe/SMr4x
YEKoz/jd6tBWRx29dpYkE+e+2Zkr+jBk8Yo4eqbhKpYCsJ262I9tTnqUaX2wk6p0
5ZOQE/qimQIDAQABo4IBPjCCATowDwYDVR0TAQH/BAUwAwEB/zAdBgNVHQ4EFgQU
5TGtvzoRlvSDvFA81LeQm5Du3iUwHwYDVR0jBBgwFoAUCHbNywf/JPbFze27kLzi
hDdGdfcwDgYDVR0PAQH/BAQDAgEGMC8GA1UdHwQoMCYwJKAioCCGHmh0dHA6Ly9j
cmwuY2VydHVtLnBsL2N0bmNhLmNybDBrBggrBgEFBQcBAQRfMF0wKAYIKwYBBQUH
MAGGHGh0dHA6Ly9zdWJjYS5vY3NwLWNlcnR1bS5jb20wMQYIKwYBBQUHMAKGJWh0
dHA6Ly9yZXBvc2l0b3J5LmNlcnR1bS5wbC9jdG5jYS5jZXIwOQYDVR0gBDIwMDAu
BgRVHSAAMCYwJAYIKwYBBQUHAgEWGGh0dHA6Ly93d3cuY2VydHVtLnBsL0NQUzAN
BgkqhkiG9w0BAQsFAAOCAQEAur/w4d1NK0JDZFjfZPP/gBpfVr47qbJ291R6TDDB
mSRLctLK1PoIxpDeiBLt+JD5/KmE/ZLyeOXbySJXq0EwQmsLn9dzM/sBZxxCXI8n
Z8duBwONDpbLCgPMPviHPDUwzRiM1XHdzd1hsBOjZEZO/nFOa2XpFATyP6i9DDY9
Kl2eB/LCT5DFXk0YN9EnKICkNuXKk2plDviTua9SWEt6cdi68+/S8/ail+RdFAKa
y+WutpPhI5+bP0b37o6hAFtmwx5oI4YPXXe6U635UvtwFcV16895rUl88nZirkQv
xV9RNCVBahIKX46uEMRDiTX97P8x5uweh+k6fClQRUGjFA==
-----END CERTIFICATE-----
Certificate:
    Data:
        Version: 3 (0x2)
        Serial Number: 279744 (0x444c0)
        Signature Algorithm: sha1WithRSAEncryption
        Issuer: CN=Certum Trusted Network CA,OU=Certum Certification Authority,O=Unizeto Technologies S.A.,C=PL
        Validity
            Not Before: Oct 22 12:07:37 2008 GMT
            Not After : Dec 31 12:07:37 2029 GMT
        Subject: CN=Certum Trusted Network CA,OU=Certum Certification Authority,O=Unizeto Technologies S.A.,C=PL
        Subject Public Key Info:
            Public Key Algorithm: rsaEncryption
                RSA Public-Key: (2048 bit)
                Modulus:
                    00:e3:fb:7d:a3:72:ba:c2:f0:c9:14:87:f5:6b:01:
                    4e:e1:6e:40:07:ba:6d:27:5d:7f:f7:5b:2d:b3:5a:
                    c7:51:5f:ab:a4:32:a6:61:87:b6:6e:0f:86:d2:30:
                    02:97:f8:d7:69:57:a1:18:39:5d:6a:64:79:c6:01:
                    59:ac:3c:31:4a:38:7c:d2:04:d2:4b:28:e8:20:5f:
                    3b:07:a2:cc:4d:73:db:f3:ae:4f:c7:56:d5:5a:a7:
                    96:89:fa:f3:ab:68:d4:23:86:59:27:cf:09:27:bc:
                    ac:6e:72:83:1c:30:72:df:e0:a2:e9:d2:e1:74:75:
                    19:bd:2a:9e:7b:15:54:04:1b:d7:43:39:ad:55:28:
                    c5:e2:1a:bb:f4:c0:e4:ae:38:49:33:cc:76:85:9f:
                    39:45:d2:a4:9e:f2:12:8c:51:f8:7c:e4:2d:7f:f5:
                    ac:5f:eb:16:9f:b1:2d:d1:ba:cc:91:42:77:4c:25:
                    c9:90:38:6f:db:f0:cc:fb:8e:1e:97:59:3e:d5:60:
                    4e:e6:05:28:ed:49:79:13:4b:ba:48:db:2f:f9:72:
                    d3:39:ca:fe:1f:d8:34:72:f5:b4:40:cf:31:01:c3:
                    ec:de:11:2d:17:5d:1f:b8:50:d1:5e:19:a7:69:de:
                    07:33:28:ca:50:95:f9:a7:54:cb:54:86:50:45:a9:
                    f9:49
                Exponent: 65537 (0x10001)
        X509v3 extensions:
            X509v3 Basic Constraints: critical
                CA:TRUE
            X509v3 Subject Key Identifier: 
                08:76:CD:CB:07:FF:24:F6:C5:CD:ED:BB:90:BC:E2:84:37:46:75:F7
            X509v3 Key Usage: critical
                Certificate Sign, CRL Sign
    Signature Algorithm: sha1WithRSAEncryption
         a6:a8:ad:22:ce:01:3d:a6:a3:ff:62:d0:48:9d:8b:5e:72:b0:
         78:44:e3:dc:1c:af:09:fd:23:48:fa:bd:2a:c4:b9:55:04:b5:
         10:a3:8d:27:de:0b:82:63:d0:ee:de:0c:37:79:41:5b:22:b2:
         b0:9a:41:5c:a6:70:e0:d4:d0:77:cb:23:d3:00:e0:6c:56:2f:
         e1:69:0d:0d:d9:aa:bf:21:81:50:d9:06:a5:a8:ff:95:37:d0:
         aa:fe:e2:b3:f5:99:2d:45:84:8a:e5:42:09:d7:74:02:2f:f7:
         89:d8:99:e9:bc:27:d4:47:8d:ba:0d:46:1c:77:cf:14:a4:1c:
         b9:a4:31:c4:9c:28:74:03:34:ff:33:19:26:a5:e9:0d:74:b7:
         3e:97:c6:76:e8:27:96:a3:66:dd:e1:ae:f2:41:5b:ca:98:56:
         83:73:70:e4:86:1a:d2:31:41:ba:2f:be:2d:13:5a:76:6f:4e:
         e8:4e:81:0e:3f:5b:03:22:a0:12:be:66:58:11:4a:cb:03:c4:
         b4:2a:2a:2d:96:17:e0:39:54:bc:48:d3:76:27:9d:9a:2d:06:
         a6:c9:ec:39:d2:ab:db:9f:9a:0b:27:02:35:29:b1:40:95:e7:
         f9:e8:9c:55:88:19:46:d6:b7:34:f5:7e:ce:39:9a:d9:38:f1:
         51:f7:4f:2c
issuer=CN=Certum Trusted Network CA,OU=Certum Certification Authority,O=Unizeto Technologies S.A.,C=PL
subject=CN=Certum Trusted Network CA,OU=Certum Certification Authority,O=Unizeto Technologies S.A.,C=PL
-----BEGIN CERTIFICATE-----
MIIDuzCCAqOgAwIBAgIDBETAMA0GCSqGSIb3DQEBBQUAMH4xCzAJBgNVBAYTAlBM
MSIwIAYDVQQKExlVbml6ZXRvIFRlY2hub2xvZ2llcyBTLkEuMScwJQYDVQQLEx5D
ZXJ0dW0gQ2VydGlmaWNhdGlvbiBBdXRob3JpdHkxIjAgBgNVBAMTGUNlcnR1bSBU
cnVzdGVkIE5ldHdvcmsgQ0EwHhcNMDgxMDIyMTIwNzM3WhcNMjkxMjMxMTIwNzM3
WjB+MQswCQYDVQQGEwJQTDEiMCAGA1UEChMZVW5pemV0byBUZWNobm9sb2dpZXMg
Uy5BLjEnMCUGA1UECxMeQ2VydHVtIENlcnRpZmljYXRpb24gQXV0aG9yaXR5MSIw
IAYDVQQDExlDZXJ0dW0gVHJ1c3RlZCBOZXR3b3JrIENBMIIBIjANBgkqhkiG9w0B
AQEFAAOCAQ8AMIIBCgKCAQEA4/t9o3K6wvDJFIf1awFO4W5AB7ptJ11/91sts1rH
UV+rpDKmYYe2bg+G0jACl/jXaVehGDldamR5xgFZrDwxSjh80gTSSyjoIF87B6LM
TXPb865Px1bVWqeWifrzq2jUI4ZZJ88JJ7ysbnKDHDBy3+Ci6dLhdHUZvSqeexVU
BBvXQzmtVSjF4hq79MDkrjhJM8x2hZ85RdKknvISjFH4fOQtf/WsX+sWn7Et0brM
kUJ3TCXJkDhv2/DM+44el1k+1WBO5gUo7Ul5E0u6SNsv+XLTOcr+H9g0cvW0QM8x
AcPs3hEtF10fuFDRXhmnad4HMyjKUJX5p1TLVIZQRan5SQIDAQABo0IwQDAPBgNV
HRMBAf8EBTADAQH/MB0GA1UdDgQWBBQIds3LB/8k9sXN7buQvOKEN0Z19zAOBgNV
HQ8BAf8EBAMCAQYwDQYJKoZIhvcNAQEFBQADggEBAKaorSLOAT2mo/9i0Eidi15y
sHhE49wcrwn9I0j6vSrEuVUEtRCjjSfeC4Jj0O7eDDd5QVsisrCaQVymcODU0HfL
I9MA4GxWL+FpDQ3Zqr8hgVDZBqWo/5U30Kr+4rP1mS1FhIrlQgnXdAIv94nYmem8
J9RHjboNRhx3zxSkHLmkMcScKHQDNP8zGSal6Q10tz6XxnboJ5ajZt3hrvJBW8qY
VoNzcOSGGtIxQbovvi0TWnZvTuhOgQ4/WwMioBK+ZlgRSssDxLQqKi2WF+A5VLxI
03YnnZotBqbJ7DnSq9ufmgsnAjUpsUCV5/nonFWIGUbWtzT1fs45mtk48VH3Tyw=
-----END CERTIFICATE-----
